target datalayout = "e-m:e-p270:32:32-p271:32:32-p272:64:64-i64:64-i128:128-f80:128-n8:16:32:64-S128"
target triple = "x86_64-unknown-linux-gnu"

%"class.q::queue" = type { ptr, ptr, ptr, ptr, %"struct.q::queue::stats", %class.obj_ref, %class.obj_ref, %class.cost_parser, %class.cost_evaluator, %class.cached_var_subst, %class.svector.30, double, %class.svector.32, %class.svector.32 }
%"struct.q::queue::stats" = type { i32, i32 }
%class.obj_ref = type { ptr, ptr }
%class.cost_parser = type { %class.simple_parser, %class.arith_util, %class.ref_vector.4 }
%class.simple_parser = type { ptr, ptr, %class.map, %class.map.0, %class.ref_vector }
%class.map = type { %class.table2map }
%class.table2map = type { %class.core_hashtable }
%class.core_hashtable = type <{ ptr, i32, i32, i32, [4 x i8] }>
%class.map.0 = type { %class.table2map.1 }
%class.table2map.1 = type { %class.core_hashtable.2 }
%class.core_hashtable.2 = type <{ ptr, i32, i32, i32, [4 x i8] }>
%class.ref_vector = type { %class.ref_vector_core }
%class.ref_vector_core = type { %class.ref_manager_wrapper, %class.ptr_vector }
%class.ref_manager_wrapper = type { ptr }
%class.ptr_vector = type { %class.vector }
%class.vector = type { ptr }
%class.arith_util = type { ptr, ptr }
%class.ref_vector.4 = type { %class.ref_vector_core.5 }
%class.ref_vector_core.5 = type { %class.ref_manager_wrapper.6, %class.ptr_vector.7 }
%class.ref_manager_wrapper.6 = type { ptr }
%class.ptr_vector.7 = type { %class.vector.8 }
%class.vector.8 = type { ptr }
%class.cost_evaluator = type { ptr, %class.arith_util, i32, ptr }
%class.cached_var_subst = type { ptr, %class.var_subst, %class.ref_vector, %class.map.24, %class.region, %class.ptr_vector.28, ptr }
%class.var_subst = type { %class.beta_reducer, i8, [7 x i8] }
%class.beta_reducer = type <{ %class.rewriter_tpl, %struct.beta_reducer_cfg, [7 x i8] }>
%class.rewriter_tpl = type { %class.rewriter_core, ptr, i32, %class.ptr_vector, %class.var_shifter, %class.inv_var_shifter, %class.obj_ref, %class.obj_ref.21, %class.obj_ref.21, %class.svector.22 }
%class.rewriter_core = type { ptr, ptr, i8, i8, %class.ptr_vector.9, ptr, %class.svector, %class.ref_vector, %class.ptr_vector.9, ptr, %class.ref_vector.12, %class.obj_hashtable, ptr, i32, %class.svector.19 }
%class.svector = type { %class.vector.11 }
%class.vector.11 = type { ptr }
%class.ptr_vector.9 = type { %class.vector.10 }
%class.vector.10 = type { ptr }
%class.ref_vector.12 = type { %class.ref_vector_core.13 }
%class.ref_vector_core.13 = type { %class.ref_manager_wrapper.14, %class.ptr_vector.15 }
%class.ref_manager_wrapper.14 = type { ptr }
%class.ptr_vector.15 = type { %class.vector.16 }
%class.vector.16 = type { ptr }
%class.obj_hashtable = type { %class.core_hashtable.base.18, [4 x i8] }
%class.core_hashtable.base.18 = type <{ ptr, i32, i32, i32 }>
%class.svector.19 = type { %class.vector.20 }
%class.vector.20 = type { ptr }
%class.var_shifter = type <{ %class.var_shifter_core, i32, i32, i32, [4 x i8] }>
%class.var_shifter_core = type { %class.rewriter_core }
%class.inv_var_shifter = type <{ %class.var_shifter_core, i32, [4 x i8] }>
%class.obj_ref.21 = type { ptr, ptr }
%class.svector.22 = type { %class.vector.23 }
%class.vector.23 = type { ptr }
%struct.beta_reducer_cfg = type { i8 }
%class.map.24 = type { %class.table2map.25 }
%class.table2map.25 = type { %class.core_hashtable.26 }
%class.core_hashtable.26 = type <{ ptr, i32, i32, i32, [4 x i8] }>
%class.region = type { ptr, ptr, ptr, ptr, ptr }
%class.ptr_vector.28 = type { %class.vector.29 }
%class.vector.29 = type { ptr }
%class.svector.30 = type { %class.vector.31 }
%class.vector.31 = type { ptr }
%class.svector.32 = type { %class.vector.33 }
%class.vector.33 = type { ptr }
%"struct.q::queue::entry" = type <{ ptr, float, i8, [3 x i8] }>

@.str.22 = private unnamed_addr constant [17 x i8] c"q instantiations\00", align 1
@.str.23 = private unnamed_addr constant [22 x i8] c"q lazy instantiations\00", align 1
@.str.24 = private unnamed_addr constant [24 x i8] c"q missed instantiations\00", align 1
@.str.25 = private unnamed_addr constant [18 x i8] c"q min missed cost\00", align 1
@.str.26 = private unnamed_addr constant [18 x i8] c"q max missed cost\00", align 1

; Function Attrs: mustprogress nounwind uwtable
define linkonce_odr hidden noundef i32 @_ZNK6vectorIN1q5queue5entryELb0EjE4sizeEv(ptr noundef nonnull align 8 dereferenceable(8) %this) #4 comdat align 2 {
entry:
  %retval = alloca i32, align 4
  %this.addr = alloca ptr, align 8
  store ptr %this, ptr %this.addr, align 8
  %this1 = load ptr, ptr %this.addr, align 8
  %m_data = getelementptr inbounds %class.vector.33, ptr %this1, i32 0, i32 0
  %0 = load ptr, ptr %m_data, align 8
  %cmp = icmp eq ptr %0, null
  br i1 %cmp, label %if.then, label %if.end

if.then:                                          ; preds = %entry
  store i32 0, ptr %retval, align 4
  br label %return

if.end:                                           ; preds = %entry
  %m_data2 = getelementptr inbounds %class.vector.33, ptr %this1, i32 0, i32 0
  %1 = load ptr, ptr %m_data2, align 8
  %arrayidx = getelementptr inbounds i32, ptr %1, i64 -1
  %2 = load i32, ptr %arrayidx, align 4
  store i32 %2, ptr %retval, align 4
  br label %return

return:                                           ; preds = %if.end, %if.then
  %3 = load i32, ptr %retval, align 4
  ret i32 %3
}

; Function Attrs: mustprogress nounwind uwtable
define linkonce_odr noundef nonnull align 4 dereferenceable(4) ptr @_ZSt3maxIfERKT_S2_S2_(ptr noundef nonnull align 4 dereferenceable(4) %__a, ptr noundef nonnull align 4 dereferenceable(4) %__b) #4 comdat {
entry:
  %retval = alloca ptr, align 8
  %__a.addr = alloca ptr, align 8
  %__b.addr = alloca ptr, align 8
  store ptr %__a, ptr %__a.addr, align 8
  store ptr %__b, ptr %__b.addr, align 8
  %0 = load ptr, ptr %__a.addr, align 8
  %1 = load float, ptr %0, align 4
  %2 = load ptr, ptr %__b.addr, align 8
  %3 = load float, ptr %2, align 4
  %cmp = fcmp olt float %1, %3
  br i1 %cmp, label %if.then, label %if.end

if.then:                                          ; preds = %entry
  %4 = load ptr, ptr %__b.addr, align 8
  store ptr %4, ptr %retval, align 8
  br label %return

if.end:                                           ; preds = %entry
  %5 = load ptr, ptr %__a.addr, align 8
  store ptr %5, ptr %retval, align 8
  br label %return

return:                                           ; preds = %if.end, %if.then
  %6 = load ptr, ptr %retval, align 8
  ret ptr %6
}

; Function Attrs: mustprogress nounwind uwtable
define linkonce_odr noundef nonnull align 4 dereferenceable(4) ptr @_ZSt3minIfERKT_S2_S2_(ptr noundef nonnull align 4 dereferenceable(4) %__a, ptr noundef nonnull align 4 dereferenceable(4) %__b) #4 comdat {
entry:
  %retval = alloca ptr, align 8
  %__a.addr = alloca ptr, align 8
  %__b.addr = alloca ptr, align 8
  store ptr %__a, ptr %__a.addr, align 8
  store ptr %__b, ptr %__b.addr, align 8
  %0 = load ptr, ptr %__b.addr, align 8
  %1 = load float, ptr %0, align 4
  %2 = load ptr, ptr %__a.addr, align 8
  %3 = load float, ptr %2, align 4
  %cmp = fcmp olt float %1, %3
  br i1 %cmp, label %if.then, label %if.end

if.then:                                          ; preds = %entry
  %4 = load ptr, ptr %__b.addr, align 8
  store ptr %4, ptr %retval, align 8
  br label %return

if.end:                                           ; preds = %entry
  %5 = load ptr, ptr %__a.addr, align 8
  store ptr %5, ptr %retval, align 8
  br label %return

return:                                           ; preds = %if.end, %if.then
  %6 = load ptr, ptr %retval, align 8
  ret ptr %6
}

; Function Attrs: mustprogress nounwind uwtable
define linkonce_odr hidden noundef ptr @_ZNK6vectorIN1q5queue5entryELb0EjE3endEv(ptr noundef nonnull align 8 dereferenceable(8) %this) #4 comdat align 2 {
entry:
  %this.addr = alloca ptr, align 8
  store ptr %this, ptr %this.addr, align 8
  %this1 = load ptr, ptr %this.addr, align 8
  %m_data = getelementptr inbounds %class.vector.33, ptr %this1, i32 0, i32 0
  %0 = load ptr, ptr %m_data, align 8
  %call = call noundef i32 @_ZNK6vectorIN1q5queue5entryELb0EjE4sizeEv(ptr noundef nonnull align 8 dereferenceable(8) %this1)
  %idx.ext = zext i32 %call to i64
  %add.ptr = getelementptr inbounds %"struct.q::queue::entry", ptr %0, i64 %idx.ext
  ret ptr %add.ptr
}

; Function Attrs: mustprogress nounwind uwtable
define linkonce_odr hidden noundef ptr @_ZNK6vectorIN1q5queue5entryELb0EjE5beginEv(ptr noundef nonnull align 8 dereferenceable(8) %this) #4 comdat align 2 {
entry:
  %this.addr = alloca ptr, align 8
  store ptr %this, ptr %this.addr, align 8
  %this1 = load ptr, ptr %this.addr, align 8
  %m_data = getelementptr inbounds %class.vector.33, ptr %this1, i32 0, i32 0
  %0 = load ptr, ptr %m_data, align 8
  ret ptr %0
}

; Function Attrs: mustprogress uwtable
define hidden void @_ZNK1q5queue18collect_statisticsER10statistics(ptr noundef nonnull align 8 dereferenceable(912) %this, ptr noundef nonnull align 8 dereferenceable(16) %st) #5 align 2 {
entry:
  %this.addr = alloca ptr, align 8
  %st.addr = alloca ptr, align 8
  %fmin = alloca float, align 4
  %fmax = alloca float, align 4
  %found = alloca i8, align 1
  %__range1 = alloca ptr, align 8
  %__begin1 = alloca ptr, align 8
  %__end1 = alloca ptr, align 8
  %e = alloca ptr, align 8
  store ptr %this, ptr %this.addr, align 8
  store ptr %st, ptr %st.addr, align 8
  %this1 = load ptr, ptr %this.addr, align 8
  store float 0.000000e+00, ptr %fmin, align 4
  store float 0.000000e+00, ptr %fmax, align 4
  store i8 0, ptr %found, align 1
  %m_delayed_entries = getelementptr inbounds %"class.q::queue", ptr %this1, i32 0, i32 13
  store ptr %m_delayed_entries, ptr %__range1, align 8
  %0 = load ptr, ptr %__range1, align 8
  %call = call noundef ptr @_ZNK6vectorIN1q5queue5entryELb0EjE5beginEv(ptr noundef nonnull align 8 dereferenceable(8) %0)
  store ptr %call, ptr %__begin1, align 8
  %1 = load ptr, ptr %__range1, align 8
  %call2 = call noundef ptr @_ZNK6vectorIN1q5queue5entryELb0EjE3endEv(ptr noundef nonnull align 8 dereferenceable(8) %1)
  store ptr %call2, ptr %__end1, align 8
  br label %for.cond

for.cond:                                         ; preds = %for.inc, %entry
  %2 = load ptr, ptr %__begin1, align 8
  %3 = load ptr, ptr %__end1, align 8
  %cmp = icmp ne ptr %2, %3
  br i1 %cmp, label %for.body, label %for.end

for.body:                                         ; preds = %for.cond
  %4 = load ptr, ptr %__begin1, align 8
  store ptr %4, ptr %e, align 8
  %5 = load ptr, ptr %e, align 8
  %m_instantiated = getelementptr inbounds %"struct.q::queue::entry", ptr %5, i32 0, i32 2
  %6 = load i8, ptr %m_instantiated, align 4
  %tobool = trunc i8 %6 to i1
  br i1 %tobool, label %if.end10, label %if.then

if.then:                                          ; preds = %for.body
  %7 = load i8, ptr %found, align 1
  %tobool3 = trunc i8 %7 to i1
  br i1 %tobool3, label %if.then4, label %if.else

if.then4:                                         ; preds = %if.then
  %8 = load ptr, ptr %e, align 8
  %m_cost = getelementptr inbounds %"struct.q::queue::entry", ptr %8, i32 0, i32 1
  %call5 = call noundef nonnull align 4 dereferenceable(4) ptr @_ZSt3minIfERKT_S2_S2_(ptr noundef nonnull align 4 dereferenceable(4) %fmin, ptr noundef nonnull align 4 dereferenceable(4) %m_cost)
  %9 = load float, ptr %call5, align 4
  store float %9, ptr %fmin, align 4
  %10 = load ptr, ptr %e, align 8
  %m_cost6 = getelementptr inbounds %"struct.q::queue::entry", ptr %10, i32 0, i32 1
  %call7 = call noundef nonnull align 4 dereferenceable(4) ptr @_ZSt3maxIfERKT_S2_S2_(ptr noundef nonnull align 4 dereferenceable(4) %fmax, ptr noundef nonnull align 4 dereferenceable(4) %m_cost6)
  %11 = load float, ptr %call7, align 4
  store float %11, ptr %fmax, align 4
  br label %if.end

if.else:                                          ; preds = %if.then
  %12 = load ptr, ptr %e, align 8
  %m_cost8 = getelementptr inbounds %"struct.q::queue::entry", ptr %12, i32 0, i32 1
  %13 = load float, ptr %m_cost8, align 8
  store float %13, ptr %fmin, align 4
  %14 = load ptr, ptr %e, align 8
  %m_cost9 = getelementptr inbounds %"struct.q::queue::entry", ptr %14, i32 0, i32 1
  %15 = load float, ptr %m_cost9, align 8
  store float %15, ptr %fmax, align 4
  store i8 1, ptr %found, align 1
  br label %if.end

if.end:                                           ; preds = %if.else, %if.then4
  br label %if.end10

if.end10:                                         ; preds = %if.end, %for.body
  br label %for.inc

for.inc:                                          ; preds = %if.end10
  %16 = load ptr, ptr %__begin1, align 8
  %incdec.ptr = getelementptr inbounds %"struct.q::queue::entry", ptr %16, i32 1
  store ptr %incdec.ptr, ptr %__begin1, align 8
  br label %for.cond

for.end:                                          ; preds = %for.cond
  %17 = load ptr, ptr %st.addr, align 8
  %m_stats = getelementptr inbounds %"class.q::queue", ptr %this1, i32 0, i32 4
  %m_num_instances = getelementptr inbounds %"struct.q::queue::stats", ptr %m_stats, i32 0, i32 0
  %18 = load i32, ptr %m_num_instances, align 8
  call void @_ZN10statistics6updateEPKcj(ptr noundef nonnull align 8 dereferenceable(16) %17, ptr noundef @.str.22, i32 noundef %18)
  %19 = load ptr, ptr %st.addr, align 8
  %m_stats11 = getelementptr inbounds %"class.q::queue", ptr %this1, i32 0, i32 4
  %m_num_lazy_instances = getelementptr inbounds %"struct.q::queue::stats", ptr %m_stats11, i32 0, i32 1
  %20 = load i32, ptr %m_num_lazy_instances, align 4
  call void @_ZN10statistics6updateEPKcj(ptr noundef nonnull align 8 dereferenceable(16) %19, ptr noundef @.str.23, i32 noundef %20)
  %21 = load ptr, ptr %st.addr, align 8
  %m_delayed_entries12 = getelementptr inbounds %"class.q::queue", ptr %this1, i32 0, i32 13
  %call13 = call noundef i32 @_ZNK6vectorIN1q5queue5entryELb0EjE4sizeEv(ptr noundef nonnull align 8 dereferenceable(8) %m_delayed_entries12)
  call void @_ZN10statistics6updateEPKcj(ptr noundef nonnull align 8 dereferenceable(16) %21, ptr noundef @.str.24, i32 noundef %call13)
  %22 = load ptr, ptr %st.addr, align 8
  %23 = load float, ptr %fmin, align 4
  %conv = fpext float %23 to double
  call void @_ZN10statistics6updateEPKcd(ptr noundef nonnull align 8 dereferenceable(16) %22, ptr noundef @.str.25, double noundef %conv)
  %24 = load ptr, ptr %st.addr, align 8
  %25 = load float, ptr %fmax, align 4
  %conv14 = fpext float %25 to double
  call void @_ZN10statistics6updateEPKcd(ptr noundef nonnull align 8 dereferenceable(16) %24, ptr noundef @.str.26, double noundef %conv14)
  ret void
}