; Function Attrs: mustprogress uwtable
define hidden void @_ZNK1q5queue18collect_statisticsER10statistics(ptr nocapture noundef nonnull readonly align 8 dereferenceable(912) %this, ptr noundef nonnull align 8 dereferenceable(16) %st) local_unnamed_addr #3 align 2 {
entry:
  %m_delayed_entries = getelementptr inbounds i8, ptr %this, i64 904
  %0 = load ptr, ptr %m_delayed_entries, align 8
  %cmp.i.i = icmp eq ptr %0, null
  br i1 %cmp.i.i, label %for.end, label %_ZNK6vectorIN1q5queue5entryELb0EjE3endEv.exit

_ZNK6vectorIN1q5queue5entryELb0EjE3endEv.exit:    ; preds = %entry
  %arrayidx.i.i = getelementptr inbounds i8, ptr %0, i64 -4
  %1 = load i32, ptr %arrayidx.i.i, align 4
  %2 = zext i32 %1 to i64
  %add.ptr.i = getelementptr inbounds %"struct.q::queue::entry", ptr %0, i64 %2
  %cmp.not19 = icmp eq i32 %1, 0
  br i1 %cmp.not19, label %for.end, label %for.body

for.body:                                         ; preds = %_ZNK6vectorIN1q5queue5entryELb0EjE3endEv.exit, %for.inc
  %found.023 = phi i8 [ %found.1, %for.inc ], [ 0, %_ZNK6vectorIN1q5queue5entryELb0EjE3endEv.exit ]
  %__begin1.022 = phi ptr [ %incdec.ptr, %for.inc ], [ %0, %_ZNK6vectorIN1q5queue5entryELb0EjE3endEv.exit ]
  %fmax.021 = phi float [ %fmax.1, %for.inc ], [ 0.000000e+00, %_ZNK6vectorIN1q5queue5entryELb0EjE3endEv.exit ]
  %fmin.020 = phi float [ %fmin.1, %for.inc ], [ 0.000000e+00, %_ZNK6vectorIN1q5queue5entryELb0EjE3endEv.exit ]
  %m_instantiated = getelementptr inbounds i8, ptr %__begin1.022, i64 12
  %3 = load i8, ptr %m_instantiated, align 4
  %4 = and i8 %3, 1
  %tobool.not = icmp eq i8 %4, 0
  br i1 %tobool.not, label %if.then, label %for.inc

if.then:                                          ; preds = %for.body
  %5 = and i8 %found.023, 1
  %tobool3.not = icmp eq i8 %5, 0
  %m_cost8 = getelementptr inbounds i8, ptr %__begin1.022, i64 8
  br i1 %tobool3.not, label %if.else, label %if.then4

if.then4:                                         ; preds = %if.then
  %6 = load float, ptr %m_cost8, align 4
  %cmp.i = fcmp olt float %6, %fmin.020
  %.sroa.speculated18 = select i1 %cmp.i, float %6, float %fmin.020
  %cmp.i12 = fcmp olt float %fmax.021, %6
  %.sroa.speculated = select i1 %cmp.i12, float %6, float %fmax.021
  br label %for.inc

if.else:                                          ; preds = %if.then
  %7 = load float, ptr %m_cost8, align 8
  br label %for.inc

for.inc:                                          ; preds = %for.body, %if.else, %if.then4
  %fmin.1 = phi float [ %7, %if.else ], [ %.sroa.speculated18, %if.then4 ], [ %fmin.020, %for.body ]
  %fmax.1 = phi float [ %7, %if.else ], [ %.sroa.speculated, %if.then4 ], [ %fmax.021, %for.body ]
  %found.1 = phi i8 [ 1, %if.else ], [ %found.023, %if.then4 ], [ %found.023, %for.body ]
  %incdec.ptr = getelementptr inbounds i8, ptr %__begin1.022, i64 16
  %cmp.not = icmp eq ptr %incdec.ptr, %add.ptr.i
  br i1 %cmp.not, label %for.end.loopexit, label %for.body

for.end.loopexit:                                 ; preds = %for.inc
  %8 = fpext float %fmin.1 to double
  %9 = fpext float %fmax.1 to double
  br label %for.end

for.end:                                          ; preds = %entry, %for.end.loopexit, %_ZNK6vectorIN1q5queue5entryELb0EjE3endEv.exit
  %fmin.0.lcssa = phi double [ 0.000000e+00, %_ZNK6vectorIN1q5queue5entryELb0EjE3endEv.exit ], [ %8, %for.end.loopexit ], [ 0.000000e+00, %entry ]
  %fmax.0.lcssa = phi double [ 0.000000e+00, %_ZNK6vectorIN1q5queue5entryELb0EjE3endEv.exit ], [ %9, %for.end.loopexit ], [ 0.000000e+00, %entry ]
  %m_stats = getelementptr inbounds i8, ptr %this, i64 32
  %10 = load i32, ptr %m_stats, align 8
  tail call void @_ZN10statistics6updateEPKcj(ptr noundef nonnull align 8 dereferenceable(16) %st, ptr noundef nonnull @.str.22, i32 noundef %10)
  %m_num_lazy_instances = getelementptr inbounds i8, ptr %this, i64 36
  %11 = load i32, ptr %m_num_lazy_instances, align 4
  tail call void @_ZN10statistics6updateEPKcj(ptr noundef nonnull align 8 dereferenceable(16) %st, ptr noundef nonnull @.str.23, i32 noundef %11)
  %12 = load ptr, ptr %m_delayed_entries, align 8
  %cmp.i14 = icmp eq ptr %12, null
  br i1 %cmp.i14, label %_ZNK6vectorIN1q5queue5entryELb0EjE4sizeEv.exit, label %if.end.i

if.end.i:                                         ; preds = %for.end
  %arrayidx.i = getelementptr inbounds i8, ptr %12, i64 -4
  %13 = load i32, ptr %arrayidx.i, align 4
  br label %_ZNK6vectorIN1q5queue5entryELb0EjE4sizeEv.exit

_ZNK6vectorIN1q5queue5entryELb0EjE4sizeEv.exit:   ; preds = %for.end, %if.end.i
  %retval.0.i = phi i32 [ %13, %if.end.i ], [ 0, %for.end ]
  tail call void @_ZN10statistics6updateEPKcj(ptr noundef nonnull align 8 dereferenceable(16) %st, ptr noundef nonnull @.str.24, i32 noundef %retval.0.i)
  tail call void @_ZN10statistics6updateEPKcd(ptr noundef nonnull align 8 dereferenceable(16) %st, ptr noundef nonnull @.str.25, double noundef %fmin.0.lcssa)
  tail call void @_ZN10statistics6updateEPKcd(ptr noundef nonnull align 8 dereferenceable(16) %st, ptr noundef nonnull @.str.26, double noundef %fmax.0.lcssa)
  ret void
}